target datalayout = "e-m:e-p270:32:32-p271:32:32-p272:64:64-i64:64-i128:128-f80:128-n8:16:32:64-S128"
target triple = "x86_64-pc-linux-gnu"

%struct.WebPMuxImage = type { ptr, ptr, ptr, ptr, i32, i32, i32, i32, ptr }

; Function Attrs: nounwind uwtable
define hidden i32 @MuxImagePush(ptr noundef %0, ptr noundef %1) #0 {
  %3 = alloca i32, align 4
  %4 = alloca ptr, align 8
  %5 = alloca ptr, align 8
  %6 = alloca ptr, align 8
  %7 = alloca ptr, align 8
  %8 = alloca i32, align 4
  store ptr %0, ptr %4, align 8, !tbaa !44
  store ptr %1, ptr %5, align 8, !tbaa !49
  call void @llvm.lifetime.start.p0(i64 8, ptr %6) #6
  br label %9

9:                                                ; preds = %26, %2
  %10 = load ptr, ptr %5, align 8, !tbaa !49
  %11 = load ptr, ptr %10, align 8, !tbaa !44
  %12 = icmp ne ptr %11, null
  br i1 %12, label %13, label %27

13:                                               ; preds = %9
  call void @llvm.lifetime.start.p0(i64 8, ptr %7) #6
  %14 = load ptr, ptr %5, align 8, !tbaa !49
  %15 = load ptr, ptr %14, align 8, !tbaa !44
  store ptr %15, ptr %7, align 8, !tbaa !44
  %16 = load ptr, ptr %7, align 8, !tbaa !44
  %17 = getelementptr inbounds nuw %struct.WebPMuxImage, ptr %16, i32 0, i32 8
  %18 = load ptr, ptr %17, align 8, !tbaa !46
  %19 = icmp eq ptr %18, null
  br i1 %19, label %20, label %21

20:                                               ; preds = %13
  store i32 3, ptr %8, align 4
  br label %24

21:                                               ; preds = %13
  %22 = load ptr, ptr %7, align 8, !tbaa !44
  %23 = getelementptr inbounds nuw %struct.WebPMuxImage, ptr %22, i32 0, i32 8
  store ptr %23, ptr %5, align 8, !tbaa !49
  store i32 0, ptr %8, align 4
  br label %24

24:                                               ; preds = %21, %20
  call void @llvm.lifetime.end.p0(i64 8, ptr %7) #6
  %25 = load i32, ptr %8, align 4
  switch i32 %25, label %51 [
    i32 0, label %26
    i32 3, label %27
  ]

26:                                               ; preds = %24
  br label %9, !llvm.loop !51

27:                                               ; preds = %24, %9
  %28 = call ptr @WebPSafeMalloc(i64 noundef 1, i64 noundef 56)
  store ptr %28, ptr %6, align 8, !tbaa !44
  %29 = load ptr, ptr %6, align 8, !tbaa !44
  %30 = icmp eq ptr %29, null
  br i1 %30, label %31, label %32

31:                                               ; preds = %27
  store i32 -3, ptr %3, align 4
  store i32 1, ptr %8, align 4
  br label %49

32:                                               ; preds = %27
  %33 = load ptr, ptr %6, align 8, !tbaa !44
  %34 = load ptr, ptr %4, align 8, !tbaa !44
  call void @llvm.memcpy.p0.p0.i64(ptr align 8 %33, ptr align 8 %34, i64 56, i1 false), !tbaa.struct !52
  %35 = load ptr, ptr %6, align 8, !tbaa !44
  %36 = getelementptr inbounds nuw %struct.WebPMuxImage, ptr %35, i32 0, i32 8
  store ptr null, ptr %36, align 8, !tbaa !46
  %37 = load ptr, ptr %5, align 8, !tbaa !49
  %38 = load ptr, ptr %37, align 8, !tbaa !44
  %39 = icmp ne ptr %38, null
  br i1 %39, label %40, label %45

40:                                               ; preds = %32
  %41 = load ptr, ptr %6, align 8, !tbaa !44
  %42 = load ptr, ptr %5, align 8, !tbaa !49
  %43 = load ptr, ptr %42, align 8, !tbaa !44
  %44 = getelementptr inbounds nuw %struct.WebPMuxImage, ptr %43, i32 0, i32 8
  store ptr %41, ptr %44, align 8, !tbaa !46
  br label %48

45:                                               ; preds = %32
  %46 = load ptr, ptr %6, align 8, !tbaa !44
  %47 = load ptr, ptr %5, align 8, !tbaa !49
  store ptr %46, ptr %47, align 8, !tbaa !44
  br label %48

48:                                               ; preds = %45, %40
  store i32 1, ptr %3, align 4
  store i32 1, ptr %8, align 4
  br label %49

49:                                               ; preds = %48, %31
  call void @llvm.lifetime.end.p0(i64 8, ptr %6) #6
  %50 = load i32, ptr %3, align 4
  ret i32 %50

51:                                               ; preds = %24
  unreachable
}