; Function Attrs: nounwind uwtable
define hidden range(i32 -3, 2) i32 @MuxImagePush(ptr noundef readonly captures(none) %0, ptr noundef captures(none) %1) local_unnamed_addr #3 {
  %.pre = load ptr, ptr %1, align 8, !tbaa !43
  %.not20 = icmp eq ptr %.pre, null
  br i1 %.not20, label %._crit_edge, label %.lr.ph

.lr.ph:                                           ; preds = %2, %.lr.ph
  %.01521 = phi ptr [ %4, %.lr.ph ], [ %1, %2 ]
  %3 = phi ptr [ %5, %.lr.ph ], [ %.pre, %2 ]
  %4 = getelementptr inbounds nuw i8, ptr %3, i64 48
  %5 = load ptr, ptr %4, align 8, !tbaa !39
  %6 = icmp eq ptr %5, null
  br i1 %6, label %._crit_edge, label %.lr.ph

._crit_edge:                                      ; preds = %.lr.ph, %2
  %.015.lcssa = phi ptr [ %1, %2 ], [ %.01521, %.lr.ph ]
  %7 = tail call ptr @WebPSafeMalloc(i64 noundef 1, i64 noundef 56) #13
  %8 = icmp eq ptr %7, null
  br i1 %8, label %15, label %9

9:                                                ; preds = %._crit_edge
  tail call void @llvm.memcpy.p0.p0.i64(ptr noundef nonnull align 8 dereferenceable(56) %7, ptr noundef nonnull align 8 dereferenceable(56) %0, i64 48, i1 false), !tbaa.struct !44
  %10 = getelementptr inbounds nuw i8, ptr %7, i64 48
  store ptr null, ptr %10, align 8, !tbaa !39
  %11 = load ptr, ptr %.015.lcssa, align 8, !tbaa !43
  %.not19 = icmp eq ptr %11, null
  br i1 %.not19, label %14, label %12

12:                                               ; preds = %9
  %13 = getelementptr inbounds nuw i8, ptr %11, i64 48
  store ptr %7, ptr %13, align 8, !tbaa !39
  br label %15

14:                                               ; preds = %9
  store ptr %7, ptr %.015.lcssa, align 8, !tbaa !43
  br label %15

15:                                               ; preds = %12, %14, %._crit_edge
  %.014 = phi i32 [ -3, %._crit_edge ], [ 1, %14 ], [ 1, %12 ]
  ret i32 %.014
}